target datalayout = "e-m:e-p270:32:32-p271:32:32-p272:64:64-i64:64-i128:128-f80:128-n8:16:32:64-S128"
target triple = "x86_64-pc-linux-gnu"

@.str.3 = private unnamed_addr constant [2 x i8] c"\0A\00", align 1
@.str.4 = private unnamed_addr constant [36 x i8] c"    attrmvcp [options] [selection]\0A\00", align 1
@.str.5 = private unnamed_addr constant [61 x i8] c"Move or copy attributes on wires to the cells driving them.\0A\00", align 1
@.str.6 = private unnamed_addr constant [11 x i8] c"    -copy\0A\00", align 1
@.str.7 = private unnamed_addr constant [62 x i8] c"        By default, attributes are moved. This will only add\0A\00", align 1
@.str.8 = private unnamed_addr constant [61 x i8] c"        the attribute to the cell, without removing it from\0A\00", align 1
@.str.9 = private unnamed_addr constant [19 x i8] c"        the wire.\0A\00", align 1
@.str.10 = private unnamed_addr constant [12 x i8] c"    -purge\0A\00", align 1
@.str.11 = private unnamed_addr constant [64 x i8] c"        If no selected cell consumes the attribute, then it is\0A\00", align 1
@.str.12 = private unnamed_addr constant [65 x i8] c"        left on the wire by default. This option will cause the\0A\00", align 1
@.str.13 = private unnamed_addr constant [68 x i8] c"        attribute to be removed from the wire, even if no selected\0A\00", align 1
@.str.14 = private unnamed_addr constant [24 x i8] c"        cell takes it.\0A\00", align 1
@.str.15 = private unnamed_addr constant [13 x i8] c"    -driven\0A\00", align 1
@.str.16 = private unnamed_addr constant [67 x i8] c"        By default, attriburtes are moved to the cell driving the\0A\00", align 1
@.str.17 = private unnamed_addr constant [65 x i8] c"        wire. With this option set it will be moved to the cell\0A\00", align 1
@.str.18 = private unnamed_addr constant [37 x i8] c"        driven by the wire instead.\0A\00", align 1
@.str.19 = private unnamed_addr constant [22 x i8] c"    -attr <attrname>\0A\00", align 1
@.str.20 = private unnamed_addr constant [62 x i8] c"        Move or copy this attribute. This option can be used\0A\00", align 1
@.str.21 = private unnamed_addr constant [25 x i8] c"        multiple times.\0A\00", align 1

; Function Attrs: mustprogress uwtable
define internal void @_ZN12_GLOBAL__N_112AttrmvcpPass4helpEv(ptr noundef nonnull align 8 dereferenceable(104) %0) unnamed_addr #4 align 2 {
  %2 = alloca ptr, align 8
  store ptr %0, ptr %2, align 8
  call void (ptr, ...) @_ZN5Yosys3logEPKcz(ptr noundef @.str.3)
  call void (ptr, ...) @_ZN5Yosys3logEPKcz(ptr noundef @.str.4)
  call void (ptr, ...) @_ZN5Yosys3logEPKcz(ptr noundef @.str.3)
  call void (ptr, ...) @_ZN5Yosys3logEPKcz(ptr noundef @.str.5)
  call void (ptr, ...) @_ZN5Yosys3logEPKcz(ptr noundef @.str.3)
  call void (ptr, ...) @_ZN5Yosys3logEPKcz(ptr noundef @.str.6)
  call void (ptr, ...) @_ZN5Yosys3logEPKcz(ptr noundef @.str.7)
  call void (ptr, ...) @_ZN5Yosys3logEPKcz(ptr noundef @.str.8)
  call void (ptr, ...) @_ZN5Yosys3logEPKcz(ptr noundef @.str.9)
  call void (ptr, ...) @_ZN5Yosys3logEPKcz(ptr noundef @.str.3)
  call void (ptr, ...) @_ZN5Yosys3logEPKcz(ptr noundef @.str.10)
  call void (ptr, ...) @_ZN5Yosys3logEPKcz(ptr noundef @.str.11)
  call void (ptr, ...) @_ZN5Yosys3logEPKcz(ptr noundef @.str.12)
  call void (ptr, ...) @_ZN5Yosys3logEPKcz(ptr noundef @.str.13)
  call void (ptr, ...) @_ZN5Yosys3logEPKcz(ptr noundef @.str.14)
  call void (ptr, ...) @_ZN5Yosys3logEPKcz(ptr noundef @.str.3)
  call void (ptr, ...) @_ZN5Yosys3logEPKcz(ptr noundef @.str.15)
  call void (ptr, ...) @_ZN5Yosys3logEPKcz(ptr noundef @.str.16)
  call void (ptr, ...) @_ZN5Yosys3logEPKcz(ptr noundef @.str.17)
  call void (ptr, ...) @_ZN5Yosys3logEPKcz(ptr noundef @.str.18)
  call void (ptr, ...) @_ZN5Yosys3logEPKcz(ptr noundef @.str.3)
  call void (ptr, ...) @_ZN5Yosys3logEPKcz(ptr noundef @.str.19)
  call void (ptr, ...) @_ZN5Yosys3logEPKcz(ptr noundef @.str.20)
  call void (ptr, ...) @_ZN5Yosys3logEPKcz(ptr noundef @.str.21)
  call void (ptr, ...) @_ZN5Yosys3logEPKcz(ptr noundef @.str.3)
  ret void
}